; ModuleID = 'source-C-CXX/27/1289.c'
source_filename = "source-C-CXX/27/1289.c"
target datalayout = "e-m:e-p270:32:32-p271:32:32-p272:64:64-i64:64-f80:128-n8:16:32:64-S128"
target triple = "x86_64-pc-linux-gnu"

@.str = private unnamed_addr constant [4 x i8] c",%d\00", align 1
@.str.1 = private unnamed_addr constant [3 x i8] c"%d\00", align 1

; Function Attrs: nounwind sspstrong uwtable
define dso_local i32 @main() local_unnamed_addr #0 {
  %1 = alloca [6000 x i8], align 16
  %2 = getelementptr inbounds [6000 x i8], [6000 x i8]* %1, i64 0, i64 0
  call void @llvm.lifetime.start.p0i8(i64 6000, i8* nonnull %2) #5
  %3 = call i32 (i8*, ...) bitcast (i32 (...)* @gets to i32 (i8*, ...)*)(i8* nonnull %2) #5
  %4 = call i64 @strlen(i8* noundef nonnull %2) #6
  %5 = trunc i64 %4 to i32
  %6 = icmp slt i32 %5, 0
  br i1 %6, label %37, label %7

7:                                                ; preds = %0
  %8 = add i64 %4, 1
  %9 = and i64 %8, 4294967295
  br label %10

10:                                               ; preds = %7, %32
  %11 = phi i64 [ 0, %7 ], [ %35, %32 ]
  %12 = phi i32 [ 0, %7 ], [ %34, %32 ]
  %13 = phi i32 [ 0, %7 ], [ %33, %32 ]
  %14 = getelementptr inbounds [6000 x i8], [6000 x i8]* %1, i64 0, i64 %11
  %15 = load i8, i8* %14, align 1, !tbaa !5
  switch i8 %15, label %16 [
    i8 32, label %18
    i8 0, label %18
  ]

16:                                               ; preds = %10
  %17 = add nsw i32 %12, 1
  br label %18

18:                                               ; preds = %10, %10, %16
  %19 = phi i32 [ %17, %16 ], [ %12, %10 ], [ %12, %10 ]
  %20 = icmp eq i8 %15, 32
  br i1 %20, label %25, label %21

21:                                               ; preds = %18
  %22 = icmp eq i8 %15, 0
  %23 = icmp ne i32 %19, 0
  %24 = select i1 %22, i1 %23, i1 false
  br i1 %24, label %27, label %32

25:                                               ; preds = %18
  %26 = icmp eq i32 %19, 0
  br i1 %26, label %32, label %27

27:                                               ; preds = %21, %25
  %28 = icmp eq i32 %13, 0
  %29 = select i1 %28, i8* getelementptr inbounds ([3 x i8], [3 x i8]* @.str.1, i64 0, i64 0), i8* getelementptr inbounds ([4 x i8], [4 x i8]* @.str, i64 0, i64 0)
  %30 = call i32 (i8*, ...) @printf(i8* nonnull dereferenceable(1) %29, i32 %19)
  %31 = add nsw i32 %13, 1
  br label %32

32:                                               ; preds = %21, %27, %25
  %33 = phi i32 [ %31, %27 ], [ %13, %25 ], [ %13, %21 ]
  %34 = phi i32 [ 0, %27 ], [ 0, %25 ], [ %19, %21 ]
  %35 = add nuw nsw i64 %11, 1
  %36 = icmp eq i64 %35, %9
  br i1 %36, label %37, label %10, !llvm.loop !8

37:                                               ; preds = %32, %0
  call void @llvm.lifetime.end.p0i8(i64 6000, i8* nonnull %2) #5
  ret i32 0
}

; Function Attrs: argmemonly mustprogress nofree nosync nounwind willreturn
declare void @llvm.lifetime.start.p0i8(i64 immarg, i8* nocapture) #1

declare i32 @gets(...) local_unnamed_addr #2

; Function Attrs: argmemonly mustprogress nofree nounwind readonly willreturn
declare i64 @strlen(i8* nocapture) local_unnamed_addr #3

; Function Attrs: nofree nounwind
declare noundef i32 @printf(i8* nocapture noundef readonly, ...) local_unnamed_addr #4

; Function Attrs: argmemonly mustprogress nofree nosync nounwind willreturn
declare void @llvm.lifetime.end.p0i8(i64 immarg, i8* nocapture) #1


!llvm.module.flags = !{!0, !1, !2, !3}
!llvm.ident = !{!4}

!0 = !{i32 1, !"wchar_size", i32 4}
!1 = !{i32 7, !"PIC Level", i32 2}
!2 = !{i32 7, !"PIE Level", i32 2}
!3 = !{i32 7, !"uwtable", i32 1}
!4 = !{!"clang version 13.0.0"}
!5 = !{!6, !6, i64 0}
!6 = !{!"omnipotent char", !7, i64 0}
!7 = !{!"Simple C/C++ TBAA"}
!8 = distinct !{!8, !9}
!9 = !{!"llvm.loop.mustprogress"}
